; Function Attrs: mustprogress nounwind uwtable
define hidden void @_ZN14ShenandoahHeap13gclabs_retireEb(ptr noundef nonnull align 8 dereferenceable(2657) %0, i1 noundef zeroext %1) local_unnamed_addr #1 align 2 {
  %3 = alloca %class.ShenandoahRetireGCLABClosure, align 8
  %4 = alloca %class.JavaThreadIteratorWithHandle, align 8
  %5 = zext i1 %1 to i8
  store ptr getelementptr inbounds inrange(-16, 8) (i8, ptr @_ZTV28ShenandoahRetireGCLABClosure, i64 16), ptr %3, align 8
  %6 = getelementptr inbounds i8, ptr %3, i64 8
  store i8 %5, ptr %6, align 8
  %7 = getelementptr inbounds i8, ptr %4, i64 8
  %8 = tail call align 8 ptr @llvm.threadlocal.address.p0(ptr align 8 @_ZN6Thread12_thr_currentE)
  %9 = load ptr, ptr %8, align 8
  call void @_ZN17ThreadsListHandleC1EP6Thread(ptr noundef nonnull align 8 dereferenceable(56) %7, ptr noundef %9) #26
  %10 = getelementptr inbounds i8, ptr %4, i64 64
  store i32 0, ptr %10, align 8
  %11 = getelementptr inbounds i8, ptr %4, i64 24
  %12 = load ptr, ptr %11, align 8
  %13 = getelementptr inbounds i8, ptr %12, i64 4
  %14 = load i32, ptr %13, align 4
  %.not.i7.not = icmp eq i32 %14, 0
  br i1 %.not.i7.not, label %_ZN28JavaThreadIteratorWithHandle4nextEv.exit.thread, label %_ZN28JavaThreadIteratorWithHandle4nextEv.exit

_ZN28JavaThreadIteratorWithHandle4nextEv.exit:    ; preds = %2, %_ZN28ShenandoahRetireGCLABClosure9do_threadEP6Thread.exit
  %15 = phi ptr [ %37, %_ZN28ShenandoahRetireGCLABClosure9do_threadEP6Thread.exit ], [ %12, %2 ]
  %16 = phi i32 [ %36, %_ZN28ShenandoahRetireGCLABClosure9do_threadEP6Thread.exit ], [ 0, %2 ]
  %17 = add nuw i32 %16, 1
  store i32 %17, ptr %10, align 8
  %18 = getelementptr inbounds i8, ptr %15, i64 16
  %19 = load ptr, ptr %18, align 8
  %20 = zext i32 %16 to i64
  %21 = getelementptr inbounds ptr, ptr %19, i64 %20
  %22 = load ptr, ptr %21, align 8
  %.not = icmp eq ptr %22, null
  br i1 %.not, label %_ZN28JavaThreadIteratorWithHandle4nextEv.exit.thread, label %29

_ZN28JavaThreadIteratorWithHandle4nextEv.exit.thread: ; preds = %_ZN28JavaThreadIteratorWithHandle4nextEv.exit, %_ZN28ShenandoahRetireGCLABClosure9do_threadEP6Thread.exit, %2
  call void @_ZN17ThreadsListHandleD1Ev(ptr noundef nonnull align 8 dereferenceable(56) %7) #26
  %23 = getelementptr inbounds i8, ptr %0, i64 504
  %24 = load ptr, ptr %23, align 8
  call void @_ZNK13WorkerThreads10threads_doEP13ThreadClosure(ptr noundef nonnull align 8 dereferenceable(120) %24, ptr noundef nonnull %3) #26
  %25 = load ptr, ptr %0, align 8
  %26 = getelementptr inbounds i8, ptr %25, i64 408
  %27 = load ptr, ptr %26, align 8
  %28 = call noundef ptr %27(ptr noundef nonnull align 8 dereferenceable(2657) %0) #26
  %.not3 = icmp eq ptr %28, null
  br i1 %.not3, label %45, label %40

29:                                               ; preds = %_ZN28JavaThreadIteratorWithHandle4nextEv.exit
  %30 = getelementptr inbounds i8, ptr %22, i64 72
  %31 = load ptr, ptr %30, align 8
  call void @_ZN4PLAB6retireEv(ptr noundef nonnull align 8 dereferenceable(128) %31) #26
  br i1 %1, label %32, label %_ZN28ShenandoahRetireGCLABClosure9do_threadEP6Thread.exit

32:                                               ; preds = %29
  %33 = getelementptr inbounds i8, ptr %22, i64 80
  %34 = load i64, ptr %33, align 8
  %.not.i4 = icmp eq i64 %34, 0
  br i1 %.not.i4, label %_ZN28ShenandoahRetireGCLABClosure9do_threadEP6Thread.exit, label %35

35:                                               ; preds = %32
  store i64 0, ptr %33, align 8
  br label %_ZN28ShenandoahRetireGCLABClosure9do_threadEP6Thread.exit

_ZN28ShenandoahRetireGCLABClosure9do_threadEP6Thread.exit: ; preds = %29, %32, %35
  %36 = load i32, ptr %10, align 8
  %37 = load ptr, ptr %11, align 8
  %38 = getelementptr inbounds i8, ptr %37, i64 4
  %39 = load i32, ptr %38, align 4
  %.not.i = icmp ult i32 %36, %39
  br i1 %.not.i, label %_ZN28JavaThreadIteratorWithHandle4nextEv.exit, label %_ZN28JavaThreadIteratorWithHandle4nextEv.exit.thread, !llvm.loop !43

40:                                               ; preds = %_ZN28JavaThreadIteratorWithHandle4nextEv.exit.thread
  %41 = load ptr, ptr %0, align 8
  %42 = getelementptr inbounds i8, ptr %41, i64 408
  %43 = load ptr, ptr %42, align 8
  %44 = call noundef ptr %43(ptr noundef nonnull align 8 dereferenceable(2657) %0) #26
  call void @_ZNK13WorkerThreads10threads_doEP13ThreadClosure(ptr noundef nonnull align 8 dereferenceable(120) %44, ptr noundef nonnull %3) #26
  br label %45

45:                                               ; preds = %40, %_ZN28JavaThreadIteratorWithHandle4nextEv.exit.thread
  ret void
}